Certificate:
    Data:
        Version: 1 (0x0)
        Serial Number: 2 (0x2)
    Signature Algorithm: sha256WithRSAEncryption
        Issuer: C=US, ST=CA, L=Santa Clara, O=Real Time Innovations, CN=RTI CA/emailAddress=secure@rti.com
        Validity
            Not Before: Sep 18 13:27:09 2019 GMT
            Not After : Sep 17 13:27:09 2020 GMT
        Subject: C=US, ST=CA, O=Real Time Innovations, CN=HelloSecureSubscriber/emailAddress=sub@rti.com
        Subject Public Key Info:
            Public Key Algorithm: rsaEncryption
                Public-Key: (2048 bit)
                Modulus:
                    00:ca:63:ce:7e:08:66:34:18:ca:a8:50:7a:c1:36:
                    9c:cc:44:22:b2:99:5f:3e:46:ed:b3:5c:a9:3c:9d:
                    17:82:9b:d3:5f:62:77:d4:b0:cd:3b:d2:7a:cb:19:
                    c9:1b:13:8a:fd:bb:d9:86:21:02:23:01:57:07:97:
                    52:18:7c:0f:66:d8:44:a8:8d:39:3b:fb:13:c0:2f:
                    ff:e9:86:bd:b5:72:e7:4d:8d:9a:10:db:4c:6f:66:
                    c4:c4:02:15:33:0e:02:3b:09:14:80:12:c8:9b:38:
                    28:b1:5d:9b:b9:99:f8:09:34:a8:20:8e:02:eb:95:
                    04:82:86:97:85:d3:82:04:6d:63:7b:ad:98:87:0d:
                    18:0f:8a:d8:a2:86:71:af:1e:f1:40:3c:87:fd:64:
                    91:5e:20:5b:2b:87:8e:81:25:17:4b:08:1f:e6:7c:
                    de:25:08:c6:64:85:17:65:a4:de:f5:51:39:f5:df:
                    a1:78:59:f5:03:34:e8:a2:14:d7:a7:42:fd:18:1e:
                    4f:4d:ef:4e:14:b1:c4:10:04:28:d9:b8:af:25:8f:
                    d3:ef:e4:10:01:07:94:0e:bd:cc:12:92:00:39:40:
                    24:d1:84:32:2a:f7:9e:8f:35:43:f5:97:ac:03:43:
                    99:34:5b:3b:be:3a:5b:db:32:23:d6:67:6e:02:63:
                    3a:45
                Exponent: 65537 (0x10001)
    Signature Algorithm: sha256WithRSAEncryption
         2b:3a:19:80:32:d1:8f:f7:17:5b:fc:5f:d1:04:d5:ee:08:1d:
         42:8d:b7:99:09:e0:9d:b6:93:3e:12:2e:17:f2:e1:6b:d7:93:
         1f:4b:3f:71:e4:94:0b:43:09:5a:25:cf:4a:86:a0:77:07:88:
         23:f0:9a:28:29:b3:20:0f:12:45:60:05:79:b1:d5:00:6d:17:
         94:95:b6:bb:e9:28:1e:9e:e8:b5:df:39:7a:ae:48:d1:38:d4:
         c5:f1:f4:78:cf:a5:22:21:2e:06:bc:f1:50:25:b9:37:fa:4b:
         1c:82:f0:10:99:9c:90:d9:a5:74:c5:5b:1d:42:66:cd:3d:88:
         c1:2d:f7:e0:65:d4:31:7a:0e:85:7e:b5:36:d6:c7:8d:a6:6d:
         1f:6c:0e:83:e3:61:f8:53:de:9c:7d:8a:b4:08:0a:b6:c2:0c:
         e2:18:6c:03:8c:03:36:34:4d:a9:a7:b5:86:de:74:3b:85:42:
         9d:b4:e9:91:3c:9a:83:eb:1b:0d:6d:a4:1e:c8:fc:22:d6:60:
         44:43:d2:18:e6:0e:21:ca:7d:18:82:a1:21:91:51:5d:d2:00:
         a9:dc:f9:f4:f4:e7:93:7d:0b:57:b7:b6:ab:2a:a6:90:c3:fb:
         07:b3:83:09:53:47:97:d4:dd:62:af:6c:13:1e:39:8e:38:d8:
         06:79:e4:54
-----BEGIN CERTIFICATE-----
MIIDazCCAlMCAQIwDQYJKoZIhvcNAQELBQAwgYAxCzAJBgNVBAYTAlVTMQswCQYD
VQQIDAJDQTEUMBIGA1UEBwwLU2FudGEgQ2xhcmExHjAcBgNVBAoMFVJlYWwgVGlt
ZSBJbm5vdmF0aW9uczEPMA0GA1UEAwwGUlRJIENBMR0wGwYJKoZIhvcNAQkBFg5z
ZWN1cmVAcnRpLmNvbTAeFw0xOTA5MTgxMzI3MDlaFw0yMDA5MTcxMzI3MDlaMHYx
CzAJBgNVBAYTAlVTMQswCQYDVQQIDAJDQTEeMBwGA1UECgwVUmVhbCBUaW1lIElu
bm92YXRpb25zMR4wHAYDVQQDDBVIZWxsb1NlY3VyZVN1YnNjcmliZXIxGjAYBgkq
hkiG9w0BCQEWC3N1YkBydGkuY29tMIIBIjANBgkqhkiG9w0BAQEFAAOCAQ8AMIIB
CgKCAQEAymPOfghmNBjKqFB6wTaczEQisplfPkbts1ypPJ0XgpvTX2J31LDNO9J6
yxnJGxOK/bvZhiECIwFXB5dSGHwPZthEqI05O/sTwC//6Ya9tXLnTY2aENtMb2bE
xAIVMw4COwkUgBLImzgosV2buZn4CTSoII4C65UEgoaXhdOCBG1je62Yhw0YD4rY
ooZxrx7xQDyH/WSRXiBbK4eOgSUXSwgf5nzeJQjGZIUXZaTe9VE59d+heFn1AzTo
ohTXp0L9GB5PTe9OFLHEEAQo2bivJY/T7+QQAQeUDr3MEpIAOUAk0YQyKveejzVD
9ZesA0OZNFs7vjpb2zIj1mduAmM6RQIDAQABMA0GCSqGSIb3DQEBCwUAA4IBAQAr
OhmAMtGP9xdb/F/RBNXuCB1CjbeZCeCdtpM+Ei4X8uFr15MfSz9x5JQLQwlaJc9K
hqB3B4gj8JooKbMgDxJFYAV5sdUAbReUlba76Sgenui13zl6rkjRONTF8fR4z6Ui
IS4GvPFQJbk3+kscgvAQmZyQ2aV0xVsdQmbNPYjBLffgZdQxeg6FfrU21seNpm0f
bA6D42H4U96cfYq0CAq2wgziGGwDjAM2NE2pp7WG3nQ7hUKdtOmRPJqD6xsNbaQe
yPwi1mBEQ9IY5g4hyn0YgqEhkVFd0gCp3Pn09OeTfQtXt7arKqaQw/sHs4MJU0eX
1N1ir2wTHjmOONgGeeRU
-----END CERTIFICATE-----
