Certificate:
    Data:
        Version: 1 (0x0)
        Serial Number: 1 (0x1)
    Signature Algorithm: sha256WithRSAEncryption
        Issuer: C=US, ST=CA, L=Santa Clara, O=Real Time Innovations, CN=RTI CA/emailAddress=secure@rti.com
        Validity
            Not Before: Sep 18 13:27:07 2019 GMT
            Not After : Sep 17 13:27:07 2020 GMT
        Subject: C=US, ST=CA, O=Real Time Innovations, CN=HelloSecurePublisher/emailAddress=pub@rti.com
        Subject Public Key Info:
            Public Key Algorithm: rsaEncryption
                Public-Key: (2048 bit)
                Modulus:
                    00:f4:69:ea:70:c5:b3:3b:a6:2b:25:f9:c0:d8:10:
                    15:68:5d:d1:cb:ed:7c:fc:7b:26:2e:57:a2:a7:d3:
                    21:d7:69:33:a0:cb:ba:c9:3c:db:4f:e1:d7:8f:0f:
                    9f:7c:a2:ba:8b:52:4e:8e:72:18:c4:18:4d:53:b0:
                    3a:58:1c:42:98:e6:31:0e:39:f3:42:3d:8b:d9:48:
                    f8:84:e9:a6:e9:17:87:12:c0:9a:a7:2a:ef:d4:ed:
                    bd:af:29:6f:56:51:06:a3:b5:ca:91:8e:1a:10:ff:
                    19:78:fc:1a:66:98:24:5f:7b:5a:3b:46:9e:bb:6c:
                    a1:03:51:3b:3c:c7:1c:b7:2d:dd:69:73:4d:5b:b5:
                    7e:c8:77:5d:1c:85:1b:8e:31:d3:ae:58:cc:41:5f:
                    3e:75:30:5d:3a:e4:41:ea:22:89:9f:88:5f:33:b8:
                    e2:bc:f7:56:12:e3:65:f6:0d:cf:e3:d2:72:5f:de:
                    0c:85:e5:38:90:2a:3d:6f:84:16:8f:cc:82:03:eb:
                    a7:8f:85:7b:a4:90:db:98:fd:89:94:de:4d:56:fb:
                    15:75:97:7c:fa:58:85:3c:34:4b:71:b2:c8:4d:92:
                    a7:18:8e:21:e0:ec:bc:9d:a0:52:8b:ad:f2:5a:a4:
                    54:b5:74:7a:13:34:86:bf:87:c6:6d:99:a6:db:ae:
                    3a:f9
                Exponent: 65537 (0x10001)
    Signature Algorithm: sha256WithRSAEncryption
         7c:e6:42:bc:0f:05:44:10:32:29:66:00:06:8c:8f:d0:0d:3f:
         44:02:49:94:ec:55:58:a0:41:18:42:5d:86:32:e1:0f:de:1b:
         29:27:14:f4:06:23:3c:e4:56:cb:97:c1:dc:5f:69:70:f3:ab:
         91:84:f7:fc:86:ac:09:2a:ee:a2:3e:7c:f6:ea:c5:9a:64:9d:
         15:c3:2a:c0:87:a6:88:25:d7:8d:07:4a:e1:b8:f9:a5:5c:30:
         08:00:06:36:b6:b0:3b:52:30:a1:20:fe:66:fc:18:76:6a:5a:
         24:7d:f7:90:d0:39:c7:4c:ae:ff:66:c8:15:32:cb:b0:bd:a2:
         47:4e:49:6f:01:94:f2:0f:ea:3a:48:b6:68:78:91:71:ec:70:
         81:20:06:5b:56:47:14:d8:f7:97:d2:00:ce:3b:5b:6d:66:f9:
         60:ad:8b:71:d9:1a:a1:dd:d9:06:52:d4:ea:97:b9:39:9f:24:
         43:e8:3f:37:1d:a3:49:c8:c9:ae:59:69:1f:e0:e2:94:cf:5c:
         39:8e:35:5e:4c:1c:20:49:5c:b5:84:aa:5f:e8:26:f3:76:0a:
         14:79:f1:2c:f4:78:49:48:53:b0:ae:03:ad:e5:3b:e6:39:5b:
         5a:45:92:e1:fe:4f:94:35:16:31:32:7c:40:9d:1b:c7:14:b1:
         bc:3a:1c:1b
-----BEGIN CERTIFICATE-----
MIIDajCCAlICAQEwDQYJKoZIhvcNAQELBQAwgYAxCzAJBgNVBAYTAlVTMQswCQYD
VQQIDAJDQTEUMBIGA1UEBwwLU2FudGEgQ2xhcmExHjAcBgNVBAoMFVJlYWwgVGlt
ZSBJbm5vdmF0aW9uczEPMA0GA1UEAwwGUlRJIENBMR0wGwYJKoZIhvcNAQkBFg5z
ZWN1cmVAcnRpLmNvbTAeFw0xOTA5MTgxMzI3MDdaFw0yMDA5MTcxMzI3MDdaMHUx
CzAJBgNVBAYTAlVTMQswCQYDVQQIDAJDQTEeMBwGA1UECgwVUmVhbCBUaW1lIElu
bm92YXRpb25zMR0wGwYDVQQDDBRIZWxsb1NlY3VyZVB1Ymxpc2hlcjEaMBgGCSqG
SIb3DQEJARYLcHViQHJ0aS5jb20wggEiMA0GCSqGSIb3DQEBAQUAA4IBDwAwggEK
AoIBAQD0aepwxbM7pisl+cDYEBVoXdHL7Xz8eyYuV6Kn0yHXaTOgy7rJPNtP4deP
D598orqLUk6OchjEGE1TsDpYHEKY5jEOOfNCPYvZSPiE6abpF4cSwJqnKu/U7b2v
KW9WUQajtcqRjhoQ/xl4/BpmmCRfe1o7Rp67bKEDUTs8xxy3Ld1pc01btX7Id10c
hRuOMdOuWMxBXz51MF065EHqIomfiF8zuOK891YS42X2Dc/j0nJf3gyF5TiQKj1v
hBaPzIID66ePhXukkNuY/YmU3k1W+xV1l3z6WIU8NEtxsshNkqcYjiHg7LydoFKL
rfJapFS1dHoTNIa/h8Ztmabbrjr5AgMBAAEwDQYJKoZIhvcNAQELBQADggEBAHzm
QrwPBUQQMilmAAaMj9ANP0QCSZTsVVigQRhCXYYy4Q/eGyknFPQGIzzkVsuXwdxf
aXDzq5GE9/yGrAkq7qI+fPbqxZpknRXDKsCHpogl140HSuG4+aVcMAgABja2sDtS
MKEg/mb8GHZqWiR995DQOcdMrv9myBUyy7C9okdOSW8BlPIP6jpItmh4kXHscIEg
BltWRxTY95fSAM47W21m+WCti3HZGqHd2QZS1OqXuTmfJEPoPzcdo0nIya5ZaR/g
4pTPXDmONV5MHCBJXLWEql/oJvN2ChR58Sz0eElIU7CuA63lO+Y5W1pFkuH+T5Q1
FjEyfECdG8cUsbw6HBs=
-----END CERTIFICATE-----
