Certificate:
    Data:
        Version: 1 (0x0)
        Serial Number: 1 (0x1)
    Signature Algorithm: sha256WithRSAEncryption
        Issuer: C=US, ST=CA, L=Santa Clara, O=Real Time Innovations, CN=RTI CA/emailAddress=secure@rti.com
        Validity
            Not Before: Jul 28 21:15:46 2017 GMT
            Not After : Jul 28 21:15:46 2018 GMT
        Subject: C=US, ST=CA, O=Real Time Innovations, CN=HelloSecurePublisher/emailAddress=pub@rti.com
        Subject Public Key Info:
            Public Key Algorithm: rsaEncryption
                Public-Key: (2048 bit)
                Modulus:
                    00:b9:b0:5b:99:dd:f2:a4:b9:a9:92:e0:56:cf:ee:
                    65:d8:2d:9b:82:39:a8:8f:d7:07:b0:e4:a9:3f:e6:
                    71:92:93:f7:4a:f1:21:21:01:83:f6:2a:3e:2e:f6:
                    0c:01:ed:10:df:b1:0d:87:b9:c6:d1:fb:a3:2c:ea:
                    7e:fe:c9:70:d3:7d:44:62:e5:be:db:43:0b:a5:95:
                    22:70:28:33:c0:89:c6:66:e3:6b:2f:6f:64:fe:be:
                    c6:f0:6f:96:b2:8a:d3:65:d2:b0:79:58:a1:fe:2d:
                    8d:7e:71:f7:37:8e:a6:8b:c0:ea:85:a4:8b:a9:82:
                    97:90:d4:b7:0b:77:72:ed:6f:e1:5a:86:8a:2e:63:
                    f0:e0:4e:82:ec:d1:98:d5:20:d3:e2:0f:1f:66:e1:
                    ff:13:17:9f:22:69:f2:4f:71:b9:ac:94:7b:b3:68:
                    fd:cd:f8:27:f9:22:ac:a1:6a:d1:a3:d1:d2:8a:ec:
                    6d:88:da:bd:11:54:dd:ea:09:51:7b:36:1f:97:78:
                    d6:00:da:80:09:22:eb:55:26:33:a5:d2:86:1d:c6:
                    97:43:9d:b5:50:53:b7:57:0c:51:a2:66:d6:80:97:
                    48:74:22:73:71:ef:ce:74:30:65:e9:12:78:ff:c0:
                    bb:b5:bd:35:4a:ac:cc:66:2d:2e:8f:72:9a:5a:96:
                    5f:dd
                Exponent: 65537 (0x10001)
    Signature Algorithm: sha256WithRSAEncryption
         8a:55:d1:69:e8:63:69:ca:53:52:1f:aa:5d:8f:77:c8:62:c2:
         3e:98:7e:98:cd:a4:84:35:96:95:56:9f:35:7f:2a:89:d2:da:
         ef:84:85:89:bf:0a:90:7c:a1:e7:eb:4e:98:16:dd:d1:dc:e1:
         86:fd:d6:21:6d:d6:25:90:d9:9e:64:ae:3e:54:c2:1b:4d:fc:
         a7:e8:f5:da:18:7d:d6:53:36:2d:f5:60:83:08:8d:02:d6:48:
         87:13:d7:a5:32:12:5e:a4:62:a7:d2:58:ab:f6:e5:78:a4:eb:
         f7:c4:09:af:fb:f4:a8:9b:c1:24:1f:df:37:40:5b:e2:69:a2:
         89:24:27:20:85:e0:48:53:51:5c:05:fa:b8:df:53:fe:db:a6:
         be:ad:1f:7f:cb:f3:93:21:6d:93:58:27:64:9f:3b:e9:d5:ae:
         69:c5:e1:e8:f3:17:67:3f:2e:4f:aa:0a:b7:53:ef:9d:1d:cb:
         b5:58:46:12:6a:9c:56:fa:8c:62:8f:31:b6:fb:a1:d3:fd:79:
         53:6e:50:26:83:46:61:7e:19:ce:3c:bc:52:75:57:20:f9:90:
         a2:95:2c:bc:f5:96:56:73:88:6d:8f:c6:09:6b:19:ac:df:e6:
         a2:a5:35:8f:f5:ad:4e:dd:0f:df:60:3c:2d:08:08:de:e2:de:
         2f:d5:4d:0c
-----BEGIN CERTIFICATE-----
MIIDajCCAlICAQEwDQYJKoZIhvcNAQELBQAwgYAxCzAJBgNVBAYTAlVTMQswCQYD
VQQIDAJDQTEUMBIGA1UEBwwLU2FudGEgQ2xhcmExHjAcBgNVBAoMFVJlYWwgVGlt
ZSBJbm5vdmF0aW9uczEPMA0GA1UEAwwGUlRJIENBMR0wGwYJKoZIhvcNAQkBFg5z
ZWN1cmVAcnRpLmNvbTAeFw0xNzA3MjgyMTE1NDZaFw0xODA3MjgyMTE1NDZaMHUx
CzAJBgNVBAYTAlVTMQswCQYDVQQIDAJDQTEeMBwGA1UECgwVUmVhbCBUaW1lIElu
bm92YXRpb25zMR0wGwYDVQQDDBRIZWxsb1NlY3VyZVB1Ymxpc2hlcjEaMBgGCSqG
SIb3DQEJARYLcHViQHJ0aS5jb20wggEiMA0GCSqGSIb3DQEBAQUAA4IBDwAwggEK
AoIBAQC5sFuZ3fKkuamS4FbP7mXYLZuCOaiP1wew5Kk/5nGSk/dK8SEhAYP2Kj4u
9gwB7RDfsQ2HucbR+6Ms6n7+yXDTfURi5b7bQwullSJwKDPAicZm42svb2T+vsbw
b5ayitNl0rB5WKH+LY1+cfc3jqaLwOqFpIupgpeQ1LcLd3Ltb+FahoouY/DgToLs
0ZjVINPiDx9m4f8TF58iafJPcbmslHuzaP3N+Cf5IqyhatGj0dKK7G2I2r0RVN3q
CVF7Nh+XeNYA2oAJIutVJjOl0oYdxpdDnbVQU7dXDFGiZtaAl0h0InNx7850MGXp
Enj/wLu1vTVKrMxmLS6Pcppall/dAgMBAAEwDQYJKoZIhvcNAQELBQADggEBAIpV
0WnoY2nKU1Ifql2Pd8hiwj6YfpjNpIQ1lpVWnzV/KonS2u+EhYm/CpB8oefrTpgW
3dHc4Yb91iFt1iWQ2Z5krj5UwhtN/Kfo9doYfdZTNi31YIMIjQLWSIcT16UyEl6k
YqfSWKv25Xik6/fECa/79KibwSQf3zdAW+JpookkJyCF4EhTUVwF+rjfU/7bpr6t
H3/L85MhbZNYJ2SfO+nVrmnF4ejzF2c/Lk+qCrdT750dy7VYRhJqnFb6jGKPMbb7
odP9eVNuUCaDRmF+Gc48vFJ1VyD5kKKVLLz1llZziG2PxglrGazf5qKlNY/1rU7d
D99gPC0ICN7i3i/VTQw=
-----END CERTIFICATE-----
