Certificate:
    Data:
        Version: 1 (0x0)
        Serial Number: 1 (0x1)
    Signature Algorithm: sha256WithRSAEncryption
        Issuer: C=US, ST=CA, L=Santa Clara, O=Real Time Innovations, CN=RTI CA/emailAddress=secure@rti.com
        Validity
            Not Before: Jul 31 13:09:45 2017 GMT
            Not After : Jul 31 13:09:45 2018 GMT
        Subject: C=US, ST=CA, O=Real Time Innovations, CN=HelloSecurePublisher/emailAddress=pub@rti.com
        Subject Public Key Info:
            Public Key Algorithm: rsaEncryption
                Public-Key: (2048 bit)
                Modulus:
                    00:c8:43:75:f8:8b:98:f8:99:c2:b5:a5:56:79:29:
                    a4:3f:48:56:be:f8:a7:87:63:b9:ce:c5:98:9b:b4:
                    57:60:30:2f:57:e4:c8:6d:0c:29:55:b8:bc:f1:5a:
                    66:80:74:08:63:5e:89:7d:8d:c6:91:9f:19:82:ac:
                    eb:e6:d9:52:e2:05:51:39:76:fd:af:bf:2a:4a:29:
                    84:0e:cc:70:0e:7e:aa:d4:5d:a5:d7:7d:26:40:ff:
                    0d:30:b8:cd:53:22:9b:d0:81:6a:93:8f:72:20:34:
                    f3:1f:fb:18:9f:94:38:12:6e:e1:0f:c0:d1:6a:aa:
                    05:38:2a:ce:e1:05:af:46:4e:76:8f:a3:fb:26:44:
                    b6:fe:c4:e6:35:71:c5:76:3e:db:7d:f7:db:f1:00:
                    57:1d:7b:0e:87:31:d9:bf:f0:07:ca:af:80:c3:7b:
                    f5:7d:f6:fd:57:dd:48:4b:bc:cf:fd:6d:12:36:5d:
                    72:11:50:af:4f:49:d3:75:d1:c4:4f:ff:e7:ef:98:
                    16:3e:96:9c:10:ec:ff:46:40:49:ca:94:0b:82:57:
                    94:9d:98:b7:8b:82:e4:72:6a:b8:05:d0:c2:a9:39:
                    09:48:60:53:01:df:dc:c4:48:69:2b:2e:c7:e7:dc:
                    26:72:e7:b4:24:75:e9:7f:58:3b:c8:74:8d:0b:97:
                    37:39
                Exponent: 65537 (0x10001)
    Signature Algorithm: sha256WithRSAEncryption
         6a:d4:43:c7:82:ab:ed:36:34:ad:0c:80:b1:0e:d6:a7:3e:2d:
         35:d5:ff:27:17:81:30:80:a2:34:0e:59:a3:9a:65:b8:44:c1:
         ab:80:64:d2:56:21:7a:17:39:2d:09:8a:d6:ce:35:ae:5b:bc:
         4d:c4:f1:d5:d6:9d:41:2f:c7:11:93:a8:10:8f:4d:68:de:cd:
         0d:54:e4:c4:6e:95:24:8b:f2:39:1c:ab:88:13:89:41:68:eb:
         37:45:af:a4:22:25:95:b8:1d:c8:2f:ed:b7:94:3c:67:8f:f8:
         f2:3f:da:be:a4:42:82:6a:fb:f7:10:29:a1:aa:9b:bd:06:c7:
         3d:7b:07:fe:43:b5:c7:16:f9:be:6c:bb:53:5e:53:53:a6:63:
         d8:f2:9a:47:bc:1a:a4:38:76:56:ff:ec:f9:fb:f2:f5:b5:3d:
         df:46:08:bd:8e:ea:f3:91:42:fb:4d:62:7b:f4:b9:d3:8e:36:
         29:91:55:38:8c:3d:29:8b:8d:70:0f:1a:ae:53:1e:90:96:21:
         ba:6e:1a:f9:9a:61:cf:30:5f:01:dd:75:a0:de:46:28:c3:3d:
         cc:71:15:bb:eb:d2:ee:97:70:18:54:55:dc:fc:d4:8c:3a:e7:
         74:6d:d1:8f:92:1c:d1:3f:c3:89:52:7f:5a:7f:ed:8c:d1:bd:
         54:db:7e:d9
-----BEGIN CERTIFICATE-----
MIIDajCCAlICAQEwDQYJKoZIhvcNAQELBQAwgYAxCzAJBgNVBAYTAlVTMQswCQYD
VQQIDAJDQTEUMBIGA1UEBwwLU2FudGEgQ2xhcmExHjAcBgNVBAoMFVJlYWwgVGlt
ZSBJbm5vdmF0aW9uczEPMA0GA1UEAwwGUlRJIENBMR0wGwYJKoZIhvcNAQkBFg5z
ZWN1cmVAcnRpLmNvbTAeFw0xNzA3MzExMzA5NDVaFw0xODA3MzExMzA5NDVaMHUx
CzAJBgNVBAYTAlVTMQswCQYDVQQIDAJDQTEeMBwGA1UECgwVUmVhbCBUaW1lIElu
bm92YXRpb25zMR0wGwYDVQQDDBRIZWxsb1NlY3VyZVB1Ymxpc2hlcjEaMBgGCSqG
SIb3DQEJARYLcHViQHJ0aS5jb20wggEiMA0GCSqGSIb3DQEBAQUAA4IBDwAwggEK
AoIBAQDIQ3X4i5j4mcK1pVZ5KaQ/SFa++KeHY7nOxZibtFdgMC9X5MhtDClVuLzx
WmaAdAhjXol9jcaRnxmCrOvm2VLiBVE5dv2vvypKKYQOzHAOfqrUXaXXfSZA/w0w
uM1TIpvQgWqTj3IgNPMf+xiflDgSbuEPwNFqqgU4Ks7hBa9GTnaPo/smRLb+xOY1
ccV2Ptt999vxAFcdew6HMdm/8AfKr4DDe/V99v1X3UhLvM/9bRI2XXIRUK9PSdN1
0cRP/+fvmBY+lpwQ7P9GQEnKlAuCV5SdmLeLguRyargF0MKpOQlIYFMB39zESGkr
Lsfn3CZy57Qkdel/WDvIdI0Llzc5AgMBAAEwDQYJKoZIhvcNAQELBQADggEBAGrU
Q8eCq+02NK0MgLEO1qc+LTXV/ycXgTCAojQOWaOaZbhEwauAZNJWIXoXOS0JitbO
Na5bvE3E8dXWnUEvxxGTqBCPTWjezQ1U5MRulSSL8jkcq4gTiUFo6zdFr6QiJZW4
Hcgv7beUPGeP+PI/2r6kQoJq+/cQKaGqm70Gxz17B/5DtccW+b5su1NeU1OmY9jy
mke8GqQ4dlb/7Pn78vW1Pd9GCL2O6vORQvtNYnv0udOONimRVTiMPSmLjXAPGq5T
HpCWIbpuGvmaYc8wXwHddaDeRijDPcxxFbvr0u6XcBhUVdz81Iw653Rt0Y+SHNE/
w4lSf1p/7YzRvVTbftk=
-----END CERTIFICATE-----
