Certificate:
    Data:
        Version: 1 (0x0)
        Serial Number: 2 (0x2)
    Signature Algorithm: sha256WithRSAEncryption
        Issuer: C=US, ST=CA, L=Santa Clara, O=Real Time Innovations, CN=RTI CA/emailAddress=secure@rti.com
        Validity
            Not Before: Jul 28 21:15:48 2017 GMT
            Not After : Jul 28 21:15:48 2018 GMT
        Subject: C=US, ST=CA, O=Real Time Innovations, CN=HelloSecureSubscriber/emailAddress=sub@rti.com
        Subject Public Key Info:
            Public Key Algorithm: rsaEncryption
                Public-Key: (2048 bit)
                Modulus:
                    00:e7:1a:ec:97:4e:27:27:01:8f:34:95:d6:c0:92:
                    3a:c3:c4:0a:df:55:0e:eb:28:50:3a:71:22:4a:13:
                    d4:30:b9:36:39:f3:2e:79:95:9c:2b:68:19:05:f2:
                    57:50:1e:0d:d7:a2:a5:86:06:63:90:75:35:16:b8:
                    45:81:30:2a:a7:c0:cf:fe:5f:cb:ee:41:5f:55:dd:
                    4a:a3:00:bf:a9:71:94:73:07:a1:fa:ff:23:0e:35:
                    61:89:c4:a7:07:f2:48:fc:66:1b:0e:f6:17:43:0b:
                    f2:7c:9d:c5:71:82:15:11:8a:75:75:24:9d:c2:5d:
                    40:e6:f5:f9:87:a4:c3:39:64:7a:62:38:70:d4:f1:
                    a4:90:bf:12:01:a8:f3:45:6e:b3:de:e5:fe:82:39:
                    d5:a7:d5:0f:1a:bf:df:f8:4e:49:91:2b:a8:1b:dc:
                    fc:b0:9e:da:37:8e:93:04:9d:7d:80:c5:82:1e:ac:
                    5d:8f:d5:8a:e7:37:6b:f2:bf:86:4d:21:cc:07:b2:
                    92:04:b1:19:82:2e:be:70:38:76:09:93:93:55:3f:
                    f9:3d:af:62:c4:6d:84:9b:23:2e:5c:72:77:08:71:
                    35:8c:ce:d2:c4:41:6d:30:78:d4:ce:16:af:f0:6f:
                    e3:fd:d7:08:5b:3b:fa:2c:a5:6c:58:7f:1c:93:17:
                    d9:69
                Exponent: 65537 (0x10001)
    Signature Algorithm: sha256WithRSAEncryption
         2a:6f:4b:f3:a5:26:80:48:c7:10:e9:ec:04:38:c3:cd:fa:44:
         eb:04:24:9b:ad:df:79:00:34:b2:ff:54:c1:c9:17:7d:fc:3e:
         5d:27:97:cc:54:08:bc:25:c4:cc:f9:dd:27:00:a9:06:22:f6:
         6b:78:73:20:b2:da:e9:af:a9:87:7b:ce:42:6f:8c:63:d8:56:
         90:04:33:85:df:5a:e8:6f:f5:24:89:c9:e7:83:96:d6:48:3d:
         0f:e7:52:3b:e4:40:32:3c:03:c8:0a:81:5d:cb:4d:25:1f:e0:
         1d:08:86:0e:cd:84:e7:bf:10:14:32:13:37:2b:f8:25:a5:31:
         72:b4:2a:01:4a:10:64:3e:14:67:03:86:7c:6a:17:10:65:08:
         49:c8:c4:e7:e6:f6:68:e0:83:bc:12:3f:61:b4:60:36:2e:62:
         df:79:6b:82:2e:ba:95:c5:59:9c:09:a8:e1:9c:04:d2:59:f9:
         8a:f7:39:e2:cf:ec:0e:92:e5:37:4b:aa:86:aa:c7:0e:8c:a1:
         4b:45:09:54:5d:f7:6e:62:66:55:80:d9:3f:98:e5:36:fd:86:
         96:35:72:9f:d5:bf:2f:f9:7a:0a:20:87:76:ed:a6:da:3e:82:
         e5:7a:13:88:39:bd:d8:24:a7:7d:64:73:93:06:07:e6:28:85:
         e8:fb:b4:6e
-----BEGIN CERTIFICATE-----
MIIDazCCAlMCAQIwDQYJKoZIhvcNAQELBQAwgYAxCzAJBgNVBAYTAlVTMQswCQYD
VQQIDAJDQTEUMBIGA1UEBwwLU2FudGEgQ2xhcmExHjAcBgNVBAoMFVJlYWwgVGlt
ZSBJbm5vdmF0aW9uczEPMA0GA1UEAwwGUlRJIENBMR0wGwYJKoZIhvcNAQkBFg5z
ZWN1cmVAcnRpLmNvbTAeFw0xNzA3MjgyMTE1NDhaFw0xODA3MjgyMTE1NDhaMHYx
CzAJBgNVBAYTAlVTMQswCQYDVQQIDAJDQTEeMBwGA1UECgwVUmVhbCBUaW1lIElu
bm92YXRpb25zMR4wHAYDVQQDDBVIZWxsb1NlY3VyZVN1YnNjcmliZXIxGjAYBgkq
hkiG9w0BCQEWC3N1YkBydGkuY29tMIIBIjANBgkqhkiG9w0BAQEFAAOCAQ8AMIIB
CgKCAQEA5xrsl04nJwGPNJXWwJI6w8QK31UO6yhQOnEiShPUMLk2OfMueZWcK2gZ
BfJXUB4N16KlhgZjkHU1FrhFgTAqp8DP/l/L7kFfVd1KowC/qXGUcweh+v8jDjVh
icSnB/JI/GYbDvYXQwvyfJ3FcYIVEYp1dSSdwl1A5vX5h6TDOWR6Yjhw1PGkkL8S
AajzRW6z3uX+gjnVp9UPGr/f+E5JkSuoG9z8sJ7aN46TBJ19gMWCHqxdj9WK5zdr
8r+GTSHMB7KSBLEZgi6+cDh2CZOTVT/5Pa9ixG2EmyMuXHJ3CHE1jM7SxEFtMHjU
zhav8G/j/dcIWzv6LKVsWH8ckxfZaQIDAQABMA0GCSqGSIb3DQEBCwUAA4IBAQAq
b0vzpSaASMcQ6ewEOMPN+kTrBCSbrd95ADSy/1TByRd9/D5dJ5fMVAi8JcTM+d0n
AKkGIvZreHMgstrpr6mHe85Cb4xj2FaQBDOF31rob/Ukicnng5bWSD0P51I75EAy
PAPICoFdy00lH+AdCIYOzYTnvxAUMhM3K/glpTFytCoBShBkPhRnA4Z8ahcQZQhJ
yMTn5vZo4IO8Ej9htGA2LmLfeWuCLrqVxVmcCajhnATSWfmK9zniz+wOkuU3S6qG
qscOjKFLRQlUXfduYmZVgNk/mOU2/YaWNXKf1b8v+XoKIId27abaPoLlehOIOb3Y
JKd9ZHOTBgfmKIXo+7Ru
-----END CERTIFICATE-----
