Certificate:
    Data:
        Version: 1 (0x0)
        Serial Number: 2 (0x2)
    Signature Algorithm: sha256WithRSAEncryption
        Issuer: C=US, ST=CA, L=Santa Clara, O=Real Time Innovations, CN=RTI CA/emailAddress=secure@rti.com
        Validity
            Not Before: Aug  2 17:17:01 2017 GMT
            Not After : Aug  2 17:17:01 2018 GMT
        Subject: C=US, ST=CA, O=Real Time Innovations, CN=HelloSecureSubscriber/emailAddress=sub@rti.com
        Subject Public Key Info:
            Public Key Algorithm: rsaEncryption
                Public-Key: (2048 bit)
                Modulus:
                    00:da:7a:82:48:c8:54:ab:22:11:e9:63:bd:d7:d6:
                    3a:32:04:e8:f5:d8:f9:bf:b0:86:b1:5b:13:d3:9c:
                    2e:a7:6a:f1:c1:9c:da:99:e6:91:0b:05:1e:fb:02:
                    03:c5:98:d5:b4:54:dc:5f:06:bf:c0:78:3f:09:71:
                    6c:94:6d:d5:ef:f0:17:09:26:13:d5:ff:e3:52:8a:
                    25:3d:ee:78:4e:8a:c7:4f:bc:37:e9:02:36:d3:5b:
                    b4:71:90:da:6e:46:0f:eb:1d:a6:c0:9d:2b:94:cb:
                    50:fd:39:13:e1:ba:9f:22:b8:80:43:99:5d:44:44:
                    db:79:e9:ae:a3:e3:37:bf:0b:01:26:ba:8f:ab:4e:
                    d0:b4:3a:1e:c6:01:72:f7:d5:93:c3:71:9b:11:37:
                    41:39:8e:10:9c:60:92:97:e4:e4:5c:95:55:3a:5a:
                    3a:62:d1:f3:74:ed:cb:8a:e7:0b:de:fa:e8:4b:4e:
                    0d:ac:d0:dd:82:3f:0a:1c:29:e3:2a:53:d1:35:b6:
                    6b:38:01:ef:46:28:57:59:c4:fa:72:f9:5b:da:32:
                    8a:ff:ec:79:51:13:3c:93:17:e5:89:74:e3:e6:f2:
                    6d:9f:fe:94:57:d6:89:ca:e9:e7:e8:d7:c2:12:c7:
                    22:cf:49:c7:50:08:70:85:da:03:b1:d1:54:ae:8f:
                    26:d1
                Exponent: 65537 (0x10001)
    Signature Algorithm: sha256WithRSAEncryption
         25:1a:e3:b5:9f:a2:e8:09:7a:cf:e0:94:2f:dc:44:0d:34:6b:
         47:42:fb:f2:c9:c5:67:a7:38:7a:50:8b:75:54:25:e7:fa:e8:
         a7:15:f3:d4:f6:ee:c9:d4:1e:04:55:b7:45:cb:6c:51:b6:09:
         78:51:ab:a7:6d:61:b7:80:52:4d:20:32:6d:5e:fb:f0:ec:ba:
         da:51:47:e3:33:9e:0a:b5:3b:ed:49:9b:48:5a:dc:24:6f:94:
         6b:07:5e:1f:7b:19:e2:2f:6b:a7:40:74:66:81:80:03:86:b5:
         72:fa:c1:cb:c6:53:e5:4d:dd:82:ad:df:38:7c:f6:e3:f4:fd:
         d7:6a:3c:89:11:ee:b4:c1:aa:8f:88:58:aa:f6:4d:90:37:9d:
         a1:21:09:b4:23:d3:d3:89:29:e0:ee:45:40:f6:7b:13:ad:86:
         06:77:ec:32:30:3a:36:4c:c6:b1:5f:8a:fc:f0:0a:6a:47:e7:
         3b:33:86:73:60:52:2f:27:cb:db:be:58:d8:73:50:72:42:42:
         ae:fc:f5:05:d6:31:18:19:c4:78:dd:59:53:3a:70:e5:77:bc:
         84:35:f5:44:d6:45:f4:0d:a3:13:c3:6f:76:f4:b2:4f:e7:0e:
         89:c3:21:26:4c:ea:99:65:d0:7e:17:cc:c0:f0:ac:c6:2e:d1:
         30:4d:e4:74
-----BEGIN CERTIFICATE-----
MIIDazCCAlMCAQIwDQYJKoZIhvcNAQELBQAwgYAxCzAJBgNVBAYTAlVTMQswCQYD
VQQIDAJDQTEUMBIGA1UEBwwLU2FudGEgQ2xhcmExHjAcBgNVBAoMFVJlYWwgVGlt
ZSBJbm5vdmF0aW9uczEPMA0GA1UEAwwGUlRJIENBMR0wGwYJKoZIhvcNAQkBFg5z
ZWN1cmVAcnRpLmNvbTAeFw0xNzA4MDIxNzE3MDFaFw0xODA4MDIxNzE3MDFaMHYx
CzAJBgNVBAYTAlVTMQswCQYDVQQIDAJDQTEeMBwGA1UECgwVUmVhbCBUaW1lIElu
bm92YXRpb25zMR4wHAYDVQQDDBVIZWxsb1NlY3VyZVN1YnNjcmliZXIxGjAYBgkq
hkiG9w0BCQEWC3N1YkBydGkuY29tMIIBIjANBgkqhkiG9w0BAQEFAAOCAQ8AMIIB
CgKCAQEA2nqCSMhUqyIR6WO919Y6MgTo9dj5v7CGsVsT05wup2rxwZzameaRCwUe
+wIDxZjVtFTcXwa/wHg/CXFslG3V7/AXCSYT1f/jUoolPe54TorHT7w36QI201u0
cZDabkYP6x2mwJ0rlMtQ/TkT4bqfIriAQ5ldRETbeemuo+M3vwsBJrqPq07QtDoe
xgFy99WTw3GbETdBOY4QnGCSl+TkXJVVOlo6YtHzdO3LiucL3vroS04NrNDdgj8K
HCnjKlPRNbZrOAHvRihXWcT6cvlb2jKK/+x5URM8kxfliXTj5vJtn/6UV9aJyunn
6NfCEsciz0nHUAhwhdoDsdFUro8m0QIDAQABMA0GCSqGSIb3DQEBCwUAA4IBAQAl
GuO1n6LoCXrP4JQv3EQNNGtHQvvyycVnpzh6UIt1VCXn+uinFfPU9u7J1B4EVbdF
y2xRtgl4UaunbWG3gFJNIDJtXvvw7LraUUfjM54KtTvtSZtIWtwkb5RrB14fexni
L2unQHRmgYADhrVy+sHLxlPlTd2Crd84fPbj9P3XajyJEe60waqPiFiq9k2QN52h
IQm0I9PTiSng7kVA9nsTrYYGd+wyMDo2TMaxX4r88ApqR+c7M4ZzYFIvJ8vbvljY
c1ByQkKu/PUF1jEYGcR43VlTOnDld7yENfVE1kX0DaMTw2929LJP5w6JwyEmTOqZ
ZdB+F8zA8KzGLtEwTeR0
-----END CERTIFICATE-----
