Certificate:
    Data:
        Version: 1 (0x0)
        Serial Number: 2 (0x2)
    Signature Algorithm: sha256WithRSAEncryption
        Issuer: C=US, ST=CA, L=Santa Clara, O=Real Time Innovations, CN=RTI CA/emailAddress=secure@rti.com
        Validity
            Not Before: Jul 31 13:09:46 2017 GMT
            Not After : Jul 31 13:09:46 2018 GMT
        Subject: C=US, ST=CA, O=Real Time Innovations, CN=HelloSecureSubscriber/emailAddress=sub@rti.com
        Subject Public Key Info:
            Public Key Algorithm: rsaEncryption
                Public-Key: (2048 bit)
                Modulus:
                    00:ba:5d:a9:c2:c5:a8:d6:8a:13:a8:2f:5b:db:ba:
                    e6:21:51:2a:b0:29:cf:68:43:59:36:cb:a3:9d:76:
                    f1:45:b4:a1:91:fa:2f:9d:5f:15:78:7c:9f:88:55:
                    76:a9:e9:59:c3:8c:7a:17:60:82:38:5c:d9:2d:f4:
                    9a:aa:69:7a:e3:2f:c0:a9:f1:e4:c9:21:75:a9:fc:
                    0e:8b:e9:24:fb:86:a8:e7:e8:54:35:df:8c:75:aa:
                    a2:9a:ad:a1:63:41:71:ba:7e:34:8d:eb:86:eb:9d:
                    f4:09:50:6d:eb:34:48:e1:a4:53:c7:c6:9b:f5:c6:
                    55:f4:54:de:42:82:83:9a:50:28:70:e8:09:e2:ec:
                    ca:b8:1f:04:ed:3c:06:d2:fd:e0:50:cc:5b:b1:a6:
                    36:ba:72:0b:44:5c:c3:d7:65:15:fb:b0:4f:f7:5e:
                    cb:30:c9:c4:bc:f6:01:37:01:13:24:9f:9c:dd:51:
                    e9:e6:1a:60:6c:e9:fb:70:e0:f2:1c:e5:4e:31:38:
                    4c:92:16:be:60:06:a8:1e:71:f3:05:e2:96:33:13:
                    c5:63:b5:51:fa:6a:f4:a2:b3:3c:80:59:7a:a9:e0:
                    89:39:e4:82:5b:3b:2e:d0:07:1b:3c:52:89:30:77:
                    91:71:67:96:9e:07:7b:5f:7a:a5:5c:41:cf:2c:c8:
                    b9:ab
                Exponent: 65537 (0x10001)
    Signature Algorithm: sha256WithRSAEncryption
         65:81:8d:da:16:3c:19:89:1d:f7:91:90:bf:a7:a6:eb:3d:bf:
         f7:cc:4c:ec:72:9c:50:38:af:60:54:e7:bb:ef:18:27:39:e2:
         94:12:1c:dc:c4:1a:4b:ed:3b:98:92:59:3f:29:1e:07:da:7f:
         a4:cd:0c:be:19:3d:ab:c7:bb:e7:1f:83:09:88:31:b4:4a:10:
         2f:57:a1:5a:ca:65:16:d4:e3:60:05:7f:30:ec:9f:2d:df:b9:
         8b:c8:19:3c:cd:58:1b:de:8f:2b:27:9a:b9:de:34:af:e4:39:
         88:06:1a:76:64:d5:bf:76:6b:47:41:5d:c0:4d:9f:2c:36:80:
         c9:61:61:4f:2d:12:ef:c1:70:2d:a2:54:8c:d3:c6:fa:8f:be:
         0b:e2:71:a0:90:60:43:11:5d:47:59:ca:a4:c8:6c:b6:19:32:
         3f:49:72:93:05:87:99:f7:3f:a5:c7:82:fe:98:07:aa:fe:0d:
         0e:a4:9b:75:19:d2:5e:b4:62:34:16:6e:eb:9a:29:d5:3e:30:
         7c:d0:67:bc:d4:f2:2e:2f:58:3e:7c:47:86:2e:98:b3:55:93:
         94:10:b1:4e:b1:34:0a:98:5d:dd:8d:41:7f:5e:52:be:69:ed:
         e7:65:67:c0:92:b8:06:99:cd:b6:31:b1:78:de:26:c2:97:3b:
         26:10:56:c6
-----BEGIN CERTIFICATE-----
MIIDazCCAlMCAQIwDQYJKoZIhvcNAQELBQAwgYAxCzAJBgNVBAYTAlVTMQswCQYD
VQQIDAJDQTEUMBIGA1UEBwwLU2FudGEgQ2xhcmExHjAcBgNVBAoMFVJlYWwgVGlt
ZSBJbm5vdmF0aW9uczEPMA0GA1UEAwwGUlRJIENBMR0wGwYJKoZIhvcNAQkBFg5z
ZWN1cmVAcnRpLmNvbTAeFw0xNzA3MzExMzA5NDZaFw0xODA3MzExMzA5NDZaMHYx
CzAJBgNVBAYTAlVTMQswCQYDVQQIDAJDQTEeMBwGA1UECgwVUmVhbCBUaW1lIElu
bm92YXRpb25zMR4wHAYDVQQDDBVIZWxsb1NlY3VyZVN1YnNjcmliZXIxGjAYBgkq
hkiG9w0BCQEWC3N1YkBydGkuY29tMIIBIjANBgkqhkiG9w0BAQEFAAOCAQ8AMIIB
CgKCAQEAul2pwsWo1ooTqC9b27rmIVEqsCnPaENZNsujnXbxRbShkfovnV8VeHyf
iFV2qelZw4x6F2CCOFzZLfSaqml64y/AqfHkySF1qfwOi+kk+4ao5+hUNd+Mdaqi
mq2hY0Fxun40jeuG6530CVBt6zRI4aRTx8ab9cZV9FTeQoKDmlAocOgJ4uzKuB8E
7TwG0v3gUMxbsaY2unILRFzD12UV+7BP917LMMnEvPYBNwETJJ+c3VHp5hpgbOn7
cODyHOVOMThMkha+YAaoHnHzBeKWMxPFY7VR+mr0orM8gFl6qeCJOeSCWzsu0Acb
PFKJMHeRcWeWngd7X3qlXEHPLMi5qwIDAQABMA0GCSqGSIb3DQEBCwUAA4IBAQBl
gY3aFjwZiR33kZC/p6brPb/3zEzscpxQOK9gVOe77xgnOeKUEhzcxBpL7TuYklk/
KR4H2n+kzQy+GT2rx7vnH4MJiDG0ShAvV6FaymUW1ONgBX8w7J8t37mLyBk8zVgb
3o8rJ5q53jSv5DmIBhp2ZNW/dmtHQV3ATZ8sNoDJYWFPLRLvwXAtolSM08b6j74L
4nGgkGBDEV1HWcqkyGy2GTI/SXKTBYeZ9z+lx4L+mAeq/g0OpJt1GdJetGI0Fm7r
minVPjB80Ge81PIuL1g+fEeGLpizVZOUELFOsTQKmF3djUF/XlK+ae3nZWfAkrgG
mc22MbF43ibClzsmEFbG
-----END CERTIFICATE-----
