Certificate:
    Data:
        Version: 1 (0x0)
        Serial Number: 1 (0x1)
    Signature Algorithm: sha256WithRSAEncryption
        Issuer: C=US, ST=CA, L=Santa Clara, O=Real Time Innovations, CN=RTI CA/emailAddress=secure@rti.com
        Validity
            Not Before: Aug  2 17:16:59 2017 GMT
            Not After : Aug  2 17:16:59 2018 GMT
        Subject: C=US, ST=CA, O=Real Time Innovations, CN=HelloSecurePublisher/emailAddress=pub@rti.com
        Subject Public Key Info:
            Public Key Algorithm: rsaEncryption
                Public-Key: (2048 bit)
                Modulus:
                    00:cd:fa:30:cc:da:fc:7e:6e:26:35:1b:b5:a4:45:
                    63:e3:88:ea:7e:72:ea:ee:d4:db:36:8f:44:79:be:
                    9c:4c:3a:04:41:f8:59:88:4c:c8:c3:a4:2d:54:4f:
                    12:4a:9b:81:2c:a6:da:d2:2f:df:c5:04:8a:89:9e:
                    19:63:02:74:0e:90:66:d5:95:aa:c5:4e:13:c5:9d:
                    d1:6c:53:32:27:8d:7f:ec:cd:c4:bd:bd:4e:dd:d2:
                    86:ee:ae:d2:6e:94:ac:fd:ea:ef:fd:fc:20:27:97:
                    fe:2f:42:b3:66:99:28:86:72:62:8a:4f:5c:8f:68:
                    f5:10:c8:ab:85:6e:b5:13:6f:c2:50:77:3d:d6:1d:
                    18:87:0a:e6:d8:f9:67:94:5b:9a:fe:9d:6a:2a:8e:
                    a1:30:c9:a1:53:98:3a:d8:06:66:33:36:56:b1:b5:
                    36:6e:82:4f:99:c4:e7:24:d2:dd:6a:78:22:3a:71:
                    ed:eb:2b:f5:e1:11:69:69:79:55:ba:b9:f9:9b:b7:
                    17:e9:67:bc:58:fd:95:8d:c6:cb:9e:92:59:35:f4:
                    25:e7:04:3b:4c:e5:0d:84:31:7f:76:cb:42:e6:e0:
                    4d:57:a1:b6:c5:29:2d:b1:64:6d:06:fc:a2:24:30:
                    99:6b:c5:ec:2e:fd:a7:a1:ef:9a:14:95:85:43:83:
                    95:cf
                Exponent: 65537 (0x10001)
    Signature Algorithm: sha256WithRSAEncryption
         3e:3f:a3:b6:01:d1:91:86:03:bd:a6:0d:07:4e:93:60:88:91:
         a3:c6:e9:4b:fc:96:95:3d:f5:b7:b7:14:dd:65:96:f7:8c:7d:
         64:b8:27:1a:3f:fb:a1:46:a7:08:35:17:f3:58:76:73:7a:b7:
         e9:07:be:ea:ca:df:2d:44:fc:fa:69:f1:8c:46:99:c7:48:a8:
         9c:eb:26:9c:c0:24:13:d0:26:b3:97:c6:4f:e1:68:12:7b:8a:
         bb:7c:26:36:78:83:3f:b4:63:d6:c0:92:44:e3:78:1d:00:b3:
         50:76:99:3b:6c:c5:64:1f:be:37:e5:b7:c6:bb:d8:e1:46:a8:
         bc:d5:c6:c5:7f:04:a9:cf:50:25:da:eb:83:61:d0:20:96:f8:
         6b:40:10:e5:4e:d9:23:75:c3:84:c5:e8:e7:93:ef:d7:42:ad:
         00:0c:27:ab:dd:15:18:3b:ff:8b:67:7b:b5:79:3d:4e:6e:78:
         b6:99:91:45:38:7f:f0:77:55:ab:0c:53:fe:00:60:7c:33:77:
         f0:d4:77:06:5b:92:4d:9b:ac:b4:09:cb:30:c3:f5:c7:59:ac:
         fa:fc:dd:49:0a:5e:f3:33:64:26:7c:c3:57:15:0a:cd:10:cc:
         b8:17:e0:7d:00:7c:9f:ca:06:e0:e0:04:9d:4f:ac:ab:44:7c:
         e3:62:05:76
-----BEGIN CERTIFICATE-----
MIIDajCCAlICAQEwDQYJKoZIhvcNAQELBQAwgYAxCzAJBgNVBAYTAlVTMQswCQYD
VQQIDAJDQTEUMBIGA1UEBwwLU2FudGEgQ2xhcmExHjAcBgNVBAoMFVJlYWwgVGlt
ZSBJbm5vdmF0aW9uczEPMA0GA1UEAwwGUlRJIENBMR0wGwYJKoZIhvcNAQkBFg5z
ZWN1cmVAcnRpLmNvbTAeFw0xNzA4MDIxNzE2NTlaFw0xODA4MDIxNzE2NTlaMHUx
CzAJBgNVBAYTAlVTMQswCQYDVQQIDAJDQTEeMBwGA1UECgwVUmVhbCBUaW1lIElu
bm92YXRpb25zMR0wGwYDVQQDDBRIZWxsb1NlY3VyZVB1Ymxpc2hlcjEaMBgGCSqG
SIb3DQEJARYLcHViQHJ0aS5jb20wggEiMA0GCSqGSIb3DQEBAQUAA4IBDwAwggEK
AoIBAQDN+jDM2vx+biY1G7WkRWPjiOp+curu1Ns2j0R5vpxMOgRB+FmITMjDpC1U
TxJKm4EsptrSL9/FBIqJnhljAnQOkGbVlarFThPFndFsUzInjX/szcS9vU7d0obu
rtJulKz96u/9/CAnl/4vQrNmmSiGcmKKT1yPaPUQyKuFbrUTb8JQdz3WHRiHCubY
+WeUW5r+nWoqjqEwyaFTmDrYBmYzNlaxtTZugk+ZxOck0t1qeCI6ce3rK/XhEWlp
eVW6ufmbtxfpZ7xY/ZWNxsueklk19CXnBDtM5Q2EMX92y0Lm4E1XobbFKS2xZG0G
/KIkMJlrxewu/aeh75oUlYVDg5XPAgMBAAEwDQYJKoZIhvcNAQELBQADggEBAD4/
o7YB0ZGGA72mDQdOk2CIkaPG6Uv8lpU99be3FN1llveMfWS4Jxo/+6FGpwg1F/NY
dnN6t+kHvurK3y1E/Ppp8YxGmcdIqJzrJpzAJBPQJrOXxk/haBJ7irt8JjZ4gz+0
Y9bAkkTjeB0As1B2mTtsxWQfvjflt8a72OFGqLzVxsV/BKnPUCXa64Nh0CCW+GtA
EOVO2SN1w4TF6OeT79dCrQAMJ6vdFRg7/4tne7V5PU5ueLaZkUU4f/B3VasMU/4A
YHwzd/DUdwZbkk2brLQJyzDD9cdZrPr83UkKXvMzZCZ8w1cVCs0QzLgX4H0AfJ/K
BuDgBJ1PrKtEfONiBXY=
-----END CERTIFICATE-----
